MPASM 5.77                         LAB_9.ASM   11-10-2020  20:30:53         PAGE  1


LOC  OBJECT CODE     LINE SOURCE TEXT
  VALUE

                      00001 ;*******************************************************************************
                      00002 ;                                                                              *
                      00003 ;    Filename: julio lopez                                                     *
                      00004 ;    Date:     9/29/2020                                                        *
                      00005 ;    File Version:                                                             *
                      00006 ;    Author:                                                                   *
                      00007 ;    Company:                                                                  *
                      00008 ;    Description:                                                              *
                      00009 ;                            HORAS  CON ITERMITENTES                                                   *
                      00010 ;*******************************************************************************
                      00011 ;
                      00012 ;    TODO INSERT CONFIG CODE HERE USING CONFIG BITS GENERATOR
                      00013     
                      00014     #INCLUDE "p16f887.inc"
                      00001         LIST
                      00002 
                      00003 ;==========================================================================
                      00004 ; Build date : Nov 22 2017
                      00005 ;  MPASM PIC16F887 processor include
                      00006 ; 
                      00007 ;  (c) Copyright 1999-2017 Microchip Technology, All rights reserved
                      00008 ;==========================================================================
                      00009 
                      00810         LIST
                      00015 ; CONFIG1
                      00016 ; __config 0xF0F1
2007   20D4           00017  __CONFIG _CONFIG1, _FOSC_INTRC_NOCLKOUT & _WDTE_OFF & _PWRTE_OFF & _MCLRE_OFF & _CP_OFF & _CPD_OFF & _B
                            OREN_OFF & _IESO_OFF & _FCMEN_OFF & _LVP_OFF
                      00018 ; CONFIG2
                      00019 ; __config 0xFFFF
2008   3FFF           00020  __CONFIG _CONFIG2, _BOR4V_BOR40V & _WRT_OFF
                      00021  ;-----------------------------------------------------------------------------
                      00022  ;-----------------------------------------------------------------------------
Warning[207]: Found label after column 1. (DATA_EE_ADDR)
  00000000            00023  DATA_EE_ADDR EQU 0X00
                      00024  
Warning[207]: Found label after column 1. (GPR_VAR)
                      00025  GPR_VAR  UDATA 
Warning[207]: Found label after column 1. (CONT)
0000                  00026  CONT         RES 1 ;IN USE      
                      00027 ;//////////////////////////////////////////////////////////////////////////////
                      00028          ;VAR DE TIMER 
                      00029 ;//////////////////////////////////////////////////////////////////////////////
Warning[207]: Found label after column 1. (W_TEMP)
0001                  00030  W_TEMP       RES 1
Warning[207]: Found label after column 1. (STATUS_TEMP)
0002                  00031  STATUS_TEMP  RES 1
                      00032          
                      00033 ;******************************************************************************
                      00034 ;******************************************************************************
Warning[207]: Found label after column 1. (RES_VECT)
                      00035          RES_VECT  CODE    0x0000            ; processor reset vector
0000   2???           00036  GOTO    START                   ; go to beginning of program
MPASM 5.77                         LAB_9.ASM   11-10-2020  20:30:53         PAGE  2


LOC  OBJECT CODE     LINE SOURCE TEXT
  VALUE

                      00037 ;**************TODO ADD INTERRUPTS HERE IF USED********************************
                      00038 ISR_VEC CODE 0X004
                      00039 
                      00040          
                      00041          
Warning[207]: Found label after column 1. (MAIN_PROG)
                      00042     MAIN_PROG CODE       0X100   
0100                  00043 START
Warning[203]: Found opcode in column 1. (BCF)
Message[302]: Register in operand not in bank 0.  Ensure that bank bits are correct.
0100   1381           00044 BCF OPTION_REG , 7
Warning[203]: Found opcode in column 1. (CALL)
0101   2???           00045 CALL    CONFIG_IO
Warning[203]: Found opcode in column 1. (CALL)
0102   2???           00046 CALL    CONFIG_FLAG
Warning[203]: Found opcode in column 1. (CALL)
0103   2???           00047 CALL    CONFUG_OSC
Warning[203]: Found opcode in column 1. (CALL)
0104   2???           00048 CALL    CONFUG_ADC
                      00049 
                      00050  
Warning[205]: Found directive in column 1. (BANKSEL)
0105   1283 1303      00051 BANKSEL PORTA 
Warning[203]: Found opcode in column 1. (CLRF)
0107   01??           00052 CLRF    CONT
Warning[203]: Found opcode in column 1. (CLRF)
0108   01??           00053 CLRF    W_TEMP       
Warning[203]: Found opcode in column 1. (CLRF)
0109   01??           00054 CLRF    STATUS_TEMP  
Warning[203]: Found opcode in column 1. (CALL)
010A   2???           00055 CALL R2_MEM
Warning[203]: Found opcode in column 1. (GOTO)
010B   2???           00056 GOTO    LOOP
010C                  00057 LOOP:
010C   149F           00058     BSF   ADCON0,GO
010D   189F           00059     BTFSC ADCON0,GO
010E   2???           00060     GOTO$-1
010F   081E           00061     MOVF ADRESH, W
0110   0086           00062     MOVWF PORTB
0111   00??           00063     MOVWF CONT
0112   2???           00064     CALL SAVE_THAT_SHIT
Warning[203]: Found opcode in column 1. (GOTO)
0113   2???           00065 GOTO LOOP
                      00066     
0114                  00067 SAVE_THAT_SHIT
0114   1283           00068   BCF    STATUS, RP0
0115   1303           00069   BCF    STATUS, RP1
0116   1D85           00070   BTFSS  PORTA , RA3
0117   0008           00071   RETURN 
0118   1985           00072   BTFSC  PORTA , RA3
0119   2???           00073   GOTO $-1
011A   08??           00074   MOVFW CONT 
011B   0088           00075   MOVWF PORTD
MPASM 5.77                         LAB_9.ASM   11-10-2020  20:30:53         PAGE  3


LOC  OBJECT CODE     LINE SOURCE TEXT
  VALUE

011C   2???           00076   CALL W2_MEM
Warning[203]: Found opcode in column 1. (RETURN)
011D   0008           00077 RETURN 
                      00078   
011E                  00079 W_MEM:
011E   1283 1703      00080    BANKSEL EEADR 
0120   3000           00081    MOVLW DATA_EE_ADDR 
Message[302]: Register in operand not in bank 0.  Ensure that bank bits are correct.
0121   008D           00082    MOVWF EEADR          ;Data Memory Address to write
                      00083    
0122   30??           00084    MOVLW CONT ;
                      00085    
Message[302]: Register in operand not in bank 0.  Ensure that bank bits are correct.
0123   008C           00086    MOVWF EEDAT          ;Data Memory Value to write
0124   1683 1703      00087    BANKSEL EECON1 ;
Message[302]: Register in operand not in bank 0.  Ensure that bank bits are correct.
0126   138C           00088    BCF EECON1, EEPGD     ;Point to DATA memory
Message[302]: Register in operand not in bank 0.  Ensure that bank bits are correct.
0127   150C           00089    BSF EECON1, WREN      ;Enable writes
0128   138B           00090    BCF INTCON, GIE       ;Disable INTs.
0129   1B8B           00091    BTFSC INTCON, GIE     ;SEE AN576
012A   2???           00092    GOTO $-2
012B   3055           00093    MOVLW 0x55 ;
Message[302]: Register in operand not in bank 0.  Ensure that bank bits are correct.
012C   008D           00094    MOVWF EECON2 ;Write 55h
012D   30AA           00095    MOVLW 0XAA  ;
Message[302]: Register in operand not in bank 0.  Ensure that bank bits are correct.
012E   008D           00096    MOVWF EECON2 ;Write AAh
Message[302]: Register in operand not in bank 0.  Ensure that bank bits are correct.
012F   148C           00097    BSF EECON1, WR ;Set WR bit to begin write
0130   178B           00098    BSF INTCON, GIE ;Enable INTs.
0131   0063           00099    SLEEP ;Wait for interrupt to signal write complete
Message[302]: Register in operand not in bank 0.  Ensure that bank bits are correct.
0132   110C           00100    BCF EECON1, WREN ;Disable writes
0133   1283           00101    BCF STATUS, RP0 ;Bank 0
0134   1303           00102    BCF STATUS, RP1
Warning[203]: Found opcode in column 1. (RETURN)
0135   0008           00103 RETURN
                      00104    
0136                  00105 W2_MEM:
0136   1283 1703      00106     BANKSEL EEADR
0138   3000           00107     MOVLW .0
Message[302]: Register in operand not in bank 0.  Ensure that bank bits are correct.
0139   008D           00108     MOVWF EEADR
013A   1283 1303      00109     BANKSEL PORTA
013C   08??           00110     MOVFW CONT
013D   1283 1703      00111     BANKSEL EEDAT
Message[302]: Register in operand not in bank 0.  Ensure that bank bits are correct.
013F   008C           00112     MOVWF   EEDAT
0140   1683 1703      00113     BANKSEL EECON1
Message[302]: Register in operand not in bank 0.  Ensure that bank bits are correct.
0142   138C           00114     BCF EECON1,EEPGD
Message[302]: Register in operand not in bank 0.  Ensure that bank bits are correct.
MPASM 5.77                         LAB_9.ASM   11-10-2020  20:30:53         PAGE  4


LOC  OBJECT CODE     LINE SOURCE TEXT
  VALUE

0143   150C           00115     BSF EECON1,WREN
                      00116     
0144   138B           00117     BCF INTCON, GIE
0145   3055           00118     MOVLW 0x55 
Message[302]: Register in operand not in bank 0.  Ensure that bank bits are correct.
0146   008D           00119     MOVWF EECON2 ;Write 55h
0147   30AA           00120     MOVLW 0XAA  
Message[302]: Register in operand not in bank 0.  Ensure that bank bits are correct.
0148   008D           00121     MOVWF EECON2 
Message[302]: Register in operand not in bank 0.  Ensure that bank bits are correct.
0149   148C           00122     BSF EECON1, WR
014A   178B           00123     BSF INTCON, GIE 
                      00124     
Message[302]: Register in operand not in bank 0.  Ensure that bank bits are correct.
014B   110C           00125     BCF EECON1, WREN 
014C   1283 1303      00126     BANKSEL PORTA   
Warning[203]: Found opcode in column 1. (RETURN)
014E   0008           00127 RETURN 
                      00128   
014F                  00129 R_MEM:
014F   1283 1703      00130     BANKSEL EEADR ;
0151   3000           00131     MOVLW   DATA_EE_ADDR ;
Message[302]: Register in operand not in bank 0.  Ensure that bank bits are correct.
0152   008D           00132     MOVWF   EEADR        ;Data Memory
                      00133                          ;Address to read
0153   1683 1703      00134     BANKSEL EECON1 ;
Message[302]: Register in operand not in bank 0.  Ensure that bank bits are correct.
0155   138C           00135     BCF     EECON1, EEPGD ;Point to DATA memory
Message[302]: Register in operand not in bank 0.  Ensure that bank bits are correct.
0156   140C           00136     BSF     EECON1, RD    ;EE Read
0157   1283 1703      00137     BANKSEL EEDAT ;
Message[302]: Register in operand not in bank 0.  Ensure that bank bits are correct.
0159   080C           00138     MOVF    EEDAT, W ;W = EEDAT
015A   0088           00139     MOVWF PORTD 
015B   1303           00140     BCF     STATUS, RP1 ;Bank 0    
Warning[203]: Found opcode in column 1. (RETURN)
015C   0008           00141 RETURN 
                      00142   
Warning[207]: Found label after column 1. (R2_MEM)
015D                  00143  R2_MEM:
015D   138B           00144     BCF INTCON, GIE 
015E   3000           00145     MOVLW .0
015F   1283 1703      00146     BANKSEL EEADR
Message[302]: Register in operand not in bank 0.  Ensure that bank bits are correct.
0161   008D           00147     MOVWF   EEADR
0162   1683 1703      00148     BANKSEL EECON1
Message[302]: Register in operand not in bank 0.  Ensure that bank bits are correct.
0164   138C           00149     BCF     EECON1, EEPGD
Message[302]: Register in operand not in bank 0.  Ensure that bank bits are correct.
0165   140C           00150     BSF     EECON1, RD
0166   1283 1703      00151     BANKSEL EEDATA
Message[302]: Register in operand not in bank 0.  Ensure that bank bits are correct.
0168   080C           00152     MOVFW   EEDATA
MPASM 5.77                         LAB_9.ASM   11-10-2020  20:30:53         PAGE  5


LOC  OBJECT CODE     LINE SOURCE TEXT
  VALUE

0169   1283 1303      00153     BANKSEL PORTA
016B   0088           00154     MOVWF   PORTD
016C   178B           00155     BSF     INTCON, GIE 
Warning[203]: Found opcode in column 1. (RETURN)
016D   0008           00156 RETURN 
                      00157   
                      00158  
                      00159  
016E                  00160 CONFUG_OSC:
016E   1683 1303      00161     BANKSEL OSCCON
0170   3061           00162     MOVLW B'01100001'
Message[302]: Register in operand not in bank 0.  Ensure that bank bits are correct.
0171   008F           00163     MOVWF OSCCON
0172   0008           00164     RETURN
0173                  00165 CONFUG_ADC:
0173   1283 1303      00166     BANKSEL PORTA
0175   139F           00167     BCF ADCON0, ADCS1
0176   171F           00168     BSF ADCON0, ADCS0           ; FOSC/8 RELOJ TAD
0177   129F           00169     BCF ADCON0, CHS3            ; CANAL 0 PARA LA CONVERSION
0178   121F           00170     BCF ADCON0, CHS2
0179   119F           00171     BCF ADCON0, CHS1
017A   111F           00172     BCF ADCON0, CHS0    
017B   1683 1303      00173     BANKSEL TRISA
Message[302]: Register in operand not in bank 0.  Ensure that bank bits are correct.
017D   139F           00174     BCF ADCON1, ADFM            ; JUSTIFICACIÓN A LA IZQUIERDA
Message[302]: Register in operand not in bank 0.  Ensure that bank bits are correct.
017E   129F           00175     BCF ADCON1, VCFG1           ; VSS COMO REFERENCIA VREF-
Message[302]: Register in operand not in bank 0.  Ensure that bank bits are correct.
017F   121F           00176     BCF ADCON1, VCFG0           ; VDD COMO REFERENCIA VREF+
0180   1283 1303      00177     BANKSEL PORTA
0182   141F           00178     BSF ADCON0, ADON            ; ENCIENDO EL MÓDULO ADC
0183   0008           00179     RETURN
                      00180 
                      00181     
                      00182  ;------------------------------------------------------------------------------
                      00183  ;------------------------------------------------------------------------------
                      00184  ;------------------------------------------------------------------------------
Warning[207]: Found label after column 1. (CONFIG_FLAG)
0184                  00185  CONFIG_FLAG
0184   178B           00186  BSF  INTCON, GIE
0185   168B           00187  BSF  INTCON, T0IE
0186   110B           00188  BCF  INTCON, T0IF 
0187   1683 1303      00189  BANKSEL TRISA 
Message[302]: Register in operand not in bank 0.  Ensure that bank bits are correct.
0189   140C           00190  BSF     PIE1, TMR1IE
Message[302]: Register in operand not in bank 0.  Ensure that bank bits are correct.
018A   148C           00191  BSF     PIE1, TMR2IE 
018B   1283 1303      00192  BANKSEL PORTA
018D   178B           00193  BSF     INTCON, GIE
018E   170B           00194  BSF     INTCON, PEIE
018F   100C           00195  BCF     PIR1, TMR1IF
0190   108C           00196  BCF     PIR1, TMR2IF 
0191   0008           00197  RETURN 
MPASM 5.77                         LAB_9.ASM   11-10-2020  20:30:53         PAGE  6


LOC  OBJECT CODE     LINE SOURCE TEXT
  VALUE

Warning[207]: Found label after column 1. (CONFIG_TIMER0)
0192                  00198   CONFIG_TIMER0
0192   1683 1303      00199  BANKSEL TRISA
Message[302]: Register in operand not in bank 0.  Ensure that bank bits are correct.
0194   1281           00200  BCF OPTION_REG , T0CS
Message[302]: Register in operand not in bank 0.  Ensure that bank bits are correct.
0195   1181           00201  BCF OPTION_REG , PSA
Message[302]: Register in operand not in bank 0.  Ensure that bank bits are correct.
0196   1101           00202  BCF OPTION_REG , PS2
Message[302]: Register in operand not in bank 0.  Ensure that bank bits are correct.
0197   1481           00203  BSF OPTION_REG , PS1
Message[302]: Register in operand not in bank 0.  Ensure that bank bits are correct.
0198   1001           00204  BCF OPTION_REG , PS0
0199   1283 1303      00205  BANKSEL PORTA
019B   3006           00206  MOVLW   .6
019C   0081           00207  MOVWF   TMR0
019D   110B           00208  BCF INTCON, T0IF
019E   0008           00209  RETURN
019F                  00210 CONFIG_TIMER1
019F   1283 1303      00211  BANKSEL   PORTA
01A1   1310           00212  BCF T1CON, TMR1GE
01A2   1690           00213  BSF T1CON, T1CKPS1 ;PRESCALER 
01A3   1610           00214  BSF T1CON, T1CKPS0 ;PRESCALER 
01A4   1190           00215  BCF T1CON, T1OSCEN ;TIMER INTERNO  
01A5   1090           00216  BCF T1CON, TMR1CS 
01A6   1410           00217  BSF T1CON, TMR1ON 
01A7   30CF           00218  MOVLW .207  ;PRESCALER HIGH 
01A8   008F           00219  MOVWF TMR1H
01A9   3026           00220  MOVLW .38  ;PRESCALER LOW
01AA   008E           00221  MOVWF TMR1L
01AB   100C           00222  BCF PIR1, TMR1IF
Warning[203]: Found opcode in column 1. (RETURN)
01AC   0008           00223 RETURN 
01AD                  00224 CONFIG_TIMER2
01AD   1283 1303      00225  BANKSEL PORTA
01AF   3025           00226  MOVLW   B'00100101'
01B0   0092           00227  MOVWF   T2CON
01B1   1683 1303      00228  BANKSEL TRISA
01B3   3001           00229  MOVLW   .1
Message[302]: Register in operand not in bank 0.  Ensure that bank bits are correct.
01B4   0092           00230  MOVWF   PR2
01B5   1283 1303      00231  BANKSEL PORTA
01B7   0191           00232  CLRF    TMR2
01B8   108C           00233  BCF     PIR1, TMR2IF
Warning[203]: Found opcode in column 1. (RETURN)
01B9   0008           00234 RETURN 
                      00235  ;+++++++++++++++++++++++++++++++++++++++++++++++++++++++++++++++++++++++++++++
                      00236  ;+++++++++++++++++++++++++++++++++++++++++++++++++++++++++++++++++++++++++++++
                      00237  ;+++++++++++++++++++++++++++++++++++++++++++++++++++++++++++++++++++++++++++++
Warning[207]: Found label after column 1. (CONFIG_IO)
01BA                  00238  CONFIG_IO
01BA   1683 1303      00239     BANKSEL TRISA
01BC   3009           00240     MOVLW   B'00001001'
MPASM 5.77                         LAB_9.ASM   11-10-2020  20:30:53         PAGE  7


LOC  OBJECT CODE     LINE SOURCE TEXT
  VALUE

Message[302]: Register in operand not in bank 0.  Ensure that bank bits are correct.
01BD   0085           00241     MOVWF   TRISA
01BE   1283 1303      00242     BANKSEL PORTA
01C0   0185           00243     CLRF    PORTA
01C1   1683 1703      00244     BANKSEL ANSEL
Message[302]: Register in operand not in bank 0.  Ensure that bank bits are correct.
01C3   0188           00245     CLRF    ANSEL
Message[302]: Register in operand not in bank 0.  Ensure that bank bits are correct.
01C4   0189           00246     CLRF    ANSELH 
Message[302]: Register in operand not in bank 0.  Ensure that bank bits are correct.
01C5   1408           00247     BSF ANSEL, ANS0
01C6   1683 1303      00248     BANKSEL TRISB
01C8   3000           00249     MOVLW   B'00000000'
Message[302]: Register in operand not in bank 0.  Ensure that bank bits are correct.
01C9   0086           00250     MOVWF   TRISB
01CA   1283 1303      00251     BANKSEL PORTB
01CC   0186           00252     CLRF    PORTB
01CD   1683 1303      00253     BANKSEL TRISC
01CF   3000           00254     MOVLW   B'00000000'
Message[302]: Register in operand not in bank 0.  Ensure that bank bits are correct.
01D0   0087           00255     MOVWF   TRISC
01D1   1283 1303      00256     BANKSEL PORTC
01D3   0187           00257     CLRF    PORTC
01D4   1683 1303      00258     BANKSEL TRISD
01D6   3000           00259     MOVLW   B'00000000'
Message[302]: Register in operand not in bank 0.  Ensure that bank bits are correct.
01D7   0088           00260     MOVWF   TRISD
01D8   1283 1303      00261     BANKSEL PORTD
01DA   0188           00262     CLRF    PORTD
01DB   0008           00263      RETURN
                      00264      
                      00265      ;DELAY
01DC   0000           00266      NOP
01DD   0000           00267      NOP
01DE   0000           00268      NOP
01DF   0000           00269      NOP
01E0   0000           00270      NOP
01E1   0000           00271      NOP
01E2   0000           00272      NOP
01E3   0000           00273      NOP
01E4   0000           00274      NOP
01E5   0000           00275      NOP
01E6   0008           00276     RETURN 
Warning[205]: Found directive in column 1. (END)
20D4 3FFF             00277 END
MPASM 5.77                         LAB_9.ASM   11-10-2020  20:30:53         PAGE  8


SYMBOL TABLE
  LABEL                             VALUE 

ABDEN                             00000000
ABDOVF                            00000007
ACKDT                             00000005
ACKEN                             00000004
ACKSTAT                           00000006
ADCON0                            0000001F
ADCON1                            0000009F
ADCS0                             00000006
ADCS1                             00000007
ADDEN                             00000003
ADFM                              00000007
ADIE                              00000006
ADIF                              00000006
ADON                              00000000
ADRESH                            0000001E
ADRESL                            0000009E
ANS0                              00000000
ANS1                              00000001
ANS10                             00000002
ANS11                             00000003
ANS12                             00000004
ANS13                             00000005
ANS2                              00000002
ANS3                              00000003
ANS4                              00000004
ANS5                              00000005
ANS6                              00000006
ANS7                              00000007
ANS8                              00000000
ANS9                              00000001
ANSEL                             00000188
ANSELH                            00000189
BAUDCTL                           00000187
BCLIE                             00000003
BCLIF                             00000003
BF                                00000000
BRG0                              00000000
BRG1                              00000001
BRG10                             00000002
BRG11                             00000003
BRG12                             00000004
BRG13                             00000005
BRG14                             00000006
BRG15                             00000007
BRG16                             00000003
BRG2                              00000002
BRG3                              00000003
BRG4                              00000004
BRG5                              00000005
BRG6                              00000006
BRG7                              00000007
BRG8                              00000000
BRG9                              00000001
MPASM 5.77                         LAB_9.ASM   11-10-2020  20:30:53         PAGE  9


SYMBOL TABLE
  LABEL                             VALUE 

BRGH                              00000002
C                                 00000000
C1CH0                             00000000
C1CH1                             00000001
C1IE                              00000005
C1IF                              00000005
C1OE                              00000005
C1ON                              00000007
C1OUT                             00000006
C1POL                             00000004
C1R                               00000002
C1RSEL                            00000005
C1SEN                             00000005
C2CH0                             00000000
C2CH1                             00000001
C2IE                              00000006
C2IF                              00000006
C2OE                              00000005
C2ON                              00000007
C2OUT                             00000006
C2POL                             00000004
C2R                               00000002
C2REN                             00000004
C2RSEL                            00000004
C2SYNC                            00000000
CCP1CON                           00000017
CCP1IE                            00000002
CCP1IF                            00000002
CCP1M0                            00000000
CCP1M1                            00000001
CCP1M2                            00000002
CCP1M3                            00000003
CCP1X                             00000005
CCP1Y                             00000004
CCP2CON                           0000001D
CCP2IE                            00000000
CCP2IF                            00000000
CCP2M0                            00000000
CCP2M1                            00000001
CCP2M2                            00000002
CCP2M3                            00000003
CCP2X                             00000005
CCP2Y                             00000004
CCPR1                             00000015
CCPR1H                            00000016
CCPR1L                            00000015
CCPR2                             0000001B
CCPR2H                            0000001C
CCPR2L                            0000001B
CHS0                              00000002
CHS1                              00000003
CHS2                              00000004
CHS3                              00000005
MPASM 5.77                         LAB_9.ASM   11-10-2020  20:30:53         PAGE 10


SYMBOL TABLE
  LABEL                             VALUE 

CKE                               00000006
CKP                               00000004
CM1CON0                           00000107
CM2CON0                           00000108
CM2CON1                           00000109
CONFIG_FLAG                       00000184
CONFIG_IO                         000001BA
CONFIG_TIMER0                     00000192
CONFIG_TIMER1                     0000019F
CONFIG_TIMER2                     000001AD
CONFUG_ADC                        00000173
CONFUG_OSC                        0000016E
CONT                              00000000
CREN                              00000004
CSRC                              00000007
D                                 00000005
DATA_ADDRESS                      00000005
DATA_EE_ADDR                      00000000
DC                                00000001
DC1B0                             00000004
DC1B1                             00000005
DC2B0                             00000004
DC2B1                             00000005
D_A                               00000005
D_NOT_A                           00000005
ECCPAS                            0000009C
ECCPAS0                           00000004
ECCPAS1                           00000005
ECCPAS2                           00000006
ECCPASE                           00000007
EEADR                             0000010D
EEADRH                            0000010F
EECON1                            0000018C
EECON2                            0000018D
EEDAT                             0000010C
EEDATA                            0000010C
EEDATH                            0000010E
EEIE                              00000004
EEIF                              00000004
EEPGD                             00000007
F                                 00000001
FERR                              00000002
FSR                               00000004
FVREN                             00000000
GCEN                              00000007
GIE                               00000007
GO                                00000001
GO_DONE                           00000001
GO_NOT_DONE                       00000001
HTS                               00000002
I2C_DATA                          00000005
I2C_READ                          00000002
I2C_START                         00000003
MPASM 5.77                         LAB_9.ASM   11-10-2020  20:30:53         PAGE 11


SYMBOL TABLE
  LABEL                             VALUE 

I2C_STOP                          00000004
INDF                              00000000
INTCON                            0000000B
INTE                              00000004
INTEDG                            00000006
INTF                              00000001
IOCB                              00000096
IOCB0                             00000000
IOCB1                             00000001
IOCB2                             00000002
IOCB3                             00000003
IOCB4                             00000004
IOCB5                             00000005
IOCB6                             00000006
IOCB7                             00000007
IRCF0                             00000004
IRCF1                             00000005
IRCF2                             00000006
IRP                               00000007
LOOP                              0000010C
LTS                               00000001
MC1OUT                            00000007
MC2OUT                            00000006
MSK                               00000093
MSK0                              00000000
MSK1                              00000001
MSK2                              00000002
MSK3                              00000003
MSK4                              00000004
MSK5                              00000005
MSK6                              00000006
MSK7                              00000007
NOT_A                             00000005
NOT_ADDRESS                       00000005
NOT_BO                            00000000
NOT_BOR                           00000000
NOT_DONE                          00000001
NOT_PD                            00000003
NOT_POR                           00000001
NOT_RBPU                          00000007
NOT_RC8                           00000006
NOT_T1SYNC                        00000002
NOT_TO                            00000004
NOT_TX8                           00000006
NOT_W                             00000002
NOT_WRITE                         00000002
OERR                              00000001
OPTION_REG                        00000081
OSCCON                            0000008F
OSCTUNE                           00000090
OSFIE                             00000007
OSFIF                             00000007
OSTS                              00000003
MPASM 5.77                         LAB_9.ASM   11-10-2020  20:30:53         PAGE 12


SYMBOL TABLE
  LABEL                             VALUE 

P                                 00000004
P1M0                              00000006
P1M1                              00000007
PCL                               00000002
PCLATH                            0000000A
PCON                              0000008E
PDC0                              00000000
PDC1                              00000001
PDC2                              00000002
PDC3                              00000003
PDC4                              00000004
PDC5                              00000005
PDC6                              00000006
PEIE                              00000006
PEN                               00000002
PIE1                              0000008C
PIE2                              0000008D
PIR1                              0000000C
PIR2                              0000000D
PORTA                             00000005
PORTB                             00000006
PORTC                             00000007
PORTD                             00000008
PORTE                             00000009
PR2                               00000092
PRSEN                             00000007
PS0                               00000000
PS1                               00000001
PS2                               00000002
PSA                               00000003
PSSAC0                            00000002
PSSAC1                            00000003
PSSBD0                            00000000
PSSBD1                            00000001
PSTRCON                           0000009D
PULSR                             00000002
PULSS                             00000003
PWM1CON                           0000009B
R                                 00000002
R2_MEM                            0000015D
RA0                               00000000
RA1                               00000001
RA2                               00000002
RA3                               00000003
RA4                               00000004
RA5                               00000005
RA6                               00000006
RA7                               00000007
RB0                               00000000
RB1                               00000001
RB2                               00000002
RB3                               00000003
RB4                               00000004
MPASM 5.77                         LAB_9.ASM   11-10-2020  20:30:53         PAGE 13


SYMBOL TABLE
  LABEL                             VALUE 

RB5                               00000005
RB6                               00000006
RB7                               00000007
RBIE                              00000003
RBIF                              00000000
RC0                               00000000
RC1                               00000001
RC2                               00000002
RC3                               00000003
RC4                               00000004
RC5                               00000005
RC6                               00000006
RC7                               00000007
RC8_9                             00000006
RC9                               00000006
RCD8                              00000000
RCEN                              00000003
RCIDL                             00000006
RCIE                              00000005
RCIF                              00000005
RCREG                             0000001A
RCSTA                             00000018
RD                                00000000
RD0                               00000000
RD1                               00000001
RD2                               00000002
RD3                               00000003
RD4                               00000004
RD5                               00000005
RD6                               00000006
RD7                               00000007
RE0                               00000000
RE1                               00000001
RE2                               00000002
RE3                               00000003
READ_WRITE                        00000002
RP0                               00000005
RP1                               00000006
RSEN                              00000001
RX9                               00000006
RX9D                              00000000
R_MEM                             0000014F
R_NOT_W                           00000002
R_W                               00000002
S                                 00000003
SAVE_THAT_SHIT                    00000114
SBOREN                            00000004
SCKP                              00000004
SCS                               00000000
SEN                               00000000
SENDB                             00000003
SMP                               00000007
SPBRG                             00000099
MPASM 5.77                         LAB_9.ASM   11-10-2020  20:30:53         PAGE 14


SYMBOL TABLE
  LABEL                             VALUE 

SPBRGH                            0000009A
SPEN                              00000007
SR0                               00000006
SR1                               00000007
SRCON                             00000185
SREN                              00000005
SSPADD                            00000093
SSPBUF                            00000013
SSPCON                            00000014
SSPCON2                           00000091
SSPEN                             00000005
SSPIE                             00000003
SSPIF                             00000003
SSPM0                             00000000
SSPM1                             00000001
SSPM2                             00000002
SSPM3                             00000003
SSPMSK                            00000093
SSPOV                             00000006
SSPSTAT                           00000094
START                             00000100
STATUS                            00000003
STATUS_TEMP                       00000002
STRA                              00000000
STRB                              00000001
STRC                              00000002
STRD                              00000003
STRSYNC                           00000004
SWDTEN                            00000000
SYNC                              00000004
T0CS                              00000005
T0IE                              00000005
T0IF                              00000002
T0SE                              00000004
T1CKPS0                           00000004
T1CKPS1                           00000005
T1CON                             00000010
T1GINV                            00000007
T1GIV                             00000007
T1GSS                             00000001
T1INSYNC                          00000002
T1OSCEN                           00000003
T1SYNC                            00000002
T2CKPS0                           00000000
T2CKPS1                           00000001
T2CON                             00000012
TMR0                              00000001
TMR0IE                            00000005
TMR0IF                            00000002
TMR1                              0000000E
TMR1CS                            00000001
TMR1GE                            00000006
TMR1H                             0000000F
MPASM 5.77                         LAB_9.ASM   11-10-2020  20:30:53         PAGE 15


SYMBOL TABLE
  LABEL                             VALUE 

TMR1IE                            00000000
TMR1IF                            00000000
TMR1L                             0000000E
TMR1ON                            00000000
TMR2                              00000011
TMR2IE                            00000001
TMR2IF                            00000001
TMR2ON                            00000002
TOUTPS0                           00000003
TOUTPS1                           00000004
TOUTPS2                           00000005
TOUTPS3                           00000006
TRISA                             00000085
TRISA0                            00000000
TRISA1                            00000001
TRISA2                            00000002
TRISA3                            00000003
TRISA4                            00000004
TRISA5                            00000005
TRISA6                            00000006
TRISA7                            00000007
TRISB                             00000086
TRISB0                            00000000
TRISB1                            00000001
TRISB2                            00000002
TRISB3                            00000003
TRISB4                            00000004
TRISB5                            00000005
TRISB6                            00000006
TRISB7                            00000007
TRISC                             00000087
TRISC0                            00000000
TRISC1                            00000001
TRISC2                            00000002
TRISC3                            00000003
TRISC4                            00000004
TRISC5                            00000005
TRISC6                            00000006
TRISC7                            00000007
TRISD                             00000088
TRISD0                            00000000
TRISD1                            00000001
TRISD2                            00000002
TRISD3                            00000003
TRISD4                            00000004
TRISD5                            00000005
TRISD6                            00000006
TRISD7                            00000007
TRISE                             00000089
TRISE0                            00000000
TRISE1                            00000001
TRISE2                            00000002
TRISE3                            00000003
MPASM 5.77                         LAB_9.ASM   11-10-2020  20:30:53         PAGE 16


SYMBOL TABLE
  LABEL                             VALUE 

TRMT                              00000001
TUN0                              00000000
TUN1                              00000001
TUN2                              00000002
TUN3                              00000003
TUN4                              00000004
TX8_9                             00000006
TX9                               00000006
TX9D                              00000000
TXD8                              00000000
TXEN                              00000005
TXIE                              00000004
TXIF                              00000004
TXREG                             00000019
TXSTA                             00000098
UA                                00000001
ULPWUE                            00000005
ULPWUIE                           00000002
ULPWUIF                           00000002
VCFG0                             00000004
VCFG1                             00000005
VR0                               00000000
VR1                               00000001
VR2                               00000002
VR3                               00000003
VRCON                             00000097
VREN                              00000007
VROE                              00000006
VRR                               00000005
VRSS                              00000004
W                                 00000000
W2_MEM                            00000136
WCOL                              00000007
WDTCON                            00000105
WDTPS0                            00000001
WDTPS1                            00000002
WDTPS2                            00000003
WDTPS3                            00000004
WPUB                              00000095
WPUB0                             00000000
WPUB1                             00000001
WPUB2                             00000002
WPUB3                             00000003
WPUB4                             00000004
WPUB5                             00000005
WPUB6                             00000006
WPUB7                             00000007
WR                                00000001
WREN                              00000002
WRERR                             00000003
WUE                               00000001
W_MEM                             0000011E
W_TEMP                            00000001
MPASM 5.77                         LAB_9.ASM   11-10-2020  20:30:53         PAGE 17


SYMBOL TABLE
  LABEL                             VALUE 

Z                                 00000002
_BOR21V                           00003EFF
_BOR40V                           00003FFF
_BOR4V_BOR21V                     00003EFF
_BOR4V_BOR40V                     00003FFF
_BOREN_NSLEEP                     00003EFF
_BOREN_OFF                        00003CFF
_BOREN_ON                         00003FFF
_BOREN_SBODEN                     00003DFF
_BOR_NSLEEP                       00003EFF
_BOR_OFF                          00003CFF
_BOR_ON                           00003FFF
_BOR_SBODEN                       00003DFF
_CONFIG1                          00002007
_CONFIG2                          00002008
_CPD_OFF                          00003FFF
_CPD_ON                           00003F7F
_CP_OFF                           00003FFF
_CP_ON                            00003FBF
_DEBUG_OFF                        00003FFF
_DEBUG_ON                         00001FFF
_DEVID1                           00002006
_EC_OSC                           00003FFB
_EXTRC                            00003FFF
_EXTRCIO                          00003FFE
_EXTRC_OSC_CLKOUT                 00003FFF
_EXTRC_OSC_NOCLKOUT               00003FFE
_FCMEN_OFF                        000037FF
_FCMEN_ON                         00003FFF
_FOSC_EC                          00003FFB
_FOSC_EXTRC_CLKOUT                00003FFF
_FOSC_EXTRC_NOCLKOUT              00003FFE
_FOSC_HS                          00003FFA
_FOSC_INTRC_CLKOUT                00003FFD
_FOSC_INTRC_NOCLKOUT              00003FFC
_FOSC_LP                          00003FF8
_FOSC_XT                          00003FF9
_HS_OSC                           00003FFA
_IDLOC0                           00002000
_IDLOC1                           00002001
_IDLOC2                           00002002
_IDLOC3                           00002003
_IESO_OFF                         00003BFF
_IESO_ON                          00003FFF
_INTOSC                           00003FFD
_INTOSCIO                         00003FFC
_INTRC_OSC_CLKOUT                 00003FFD
_INTRC_OSC_NOCLKOUT               00003FFC
_LP_OSC                           00003FF8
_LVP_OFF                          00002FFF
_LVP_ON                           00003FFF
_MAIN_PROG_010E                   0000010E
_MAIN_PROG_0119                   00000119
MPASM 5.77                         LAB_9.ASM   11-10-2020  20:30:53         PAGE 18


SYMBOL TABLE
  LABEL                             VALUE 

_MAIN_PROG_012A                   0000012A
_MCLRE_OFF                        00003FDF
_MCLRE_ON                         00003FFF
_PWRTE_OFF                        00003FFF
_PWRTE_ON                         00003FEF
_WDTE_OFF                         00003FF7
_WDTE_ON                          00003FFF
_WDT_OFF                          00003FF7
_WDT_ON                           00003FFF
_WRT_1FOURTH                      00003BFF
_WRT_256                          00003DFF
_WRT_HALF                         000039FF
_WRT_OFF                          00003FFF
_XT_OSC                           00003FF9
__16F887                          00000001

Errors   :     0
Warnings :    31 reported,     0 suppressed
Messages :    44 reported,     0 suppressed

