MPASM 5.77                         LAB_6.ASM   10-1-2020  15:34:46         PAGE  1


LOC  OBJECT CODE     LINE SOURCE TEXT
  VALUE

                      00001 ;*******************************************************************************
                      00002 ;                                                                              *
                      00003 ;    Filename: julio lopez                                                     *
                      00004 ;    Date:     9/29/2020                                                        *
                      00005 ;    File Version:                                                             *
                      00006 ;    Author:                                                                   *
                      00007 ;    Company:                                                                  *
                      00008 ;    Description:                                                              *
                      00009 ;                            HORAS  CON ITERMITENTES                                                   *
                      00010 ;*******************************************************************************
                      00011 ;
                      00012 ;    TODO INSERT CONFIG CODE HERE USING CONFIG BITS GENERATOR
                      00013     
                      00014     #INCLUDE "p16f887.inc"
                      00001         LIST
                      00002 
                      00003 ;==========================================================================
                      00004 ; Build date : Nov 22 2017
                      00005 ;  MPASM PIC16F887 processor include
                      00006 ; 
                      00007 ;  (c) Copyright 1999-2017 Microchip Technology, All rights reserved
                      00008 ;==========================================================================
                      00009 
                      00810         LIST
                      00015 ; CONFIG1
                      00016 ; __config 0xF0F1
2007   20D4           00017  __CONFIG _CONFIG1, _FOSC_INTRC_NOCLKOUT & _WDTE_OFF & _PWRTE_OFF & _MCLRE_OFF & _CP_OFF & _CPD_OFF & _B
                            OREN_OFF & _IESO_OFF & _FCMEN_OFF & _LVP_OFF
                      00018 ; CONFIG2
                      00019 ; __config 0xFFFF
2008   3FFF           00020  __CONFIG _CONFIG2, _BOR4V_BOR40V & _WRT_OFF
                      00021  ;-----------------------------------------------------------------------------
                      00022  ;-----------------------------------------------------------------------------
                      00023  
Warning[207]: Found label after column 1. (GPR_VAR)
                      00024  GPR_VAR  UDATA 
Warning[207]: Found label after column 1. (CONT)
0000                  00025  CONT         RES 1 ;IN USE 
Warning[207]: Found label after column 1. (CONT1)
0001                  00026  CONT1         RES 1 ;IN USE 
Warning[207]: Found label after column 1. (CONT2)
0002                  00027  CONT2         RES 1 ;IN USE 
Warning[207]: Found label after column 1. (TEMP)
0003                  00028  TEMP         RES 1 ;IN USE 
Warning[207]: Found label after column 1. (TEMP1)
0004                  00029  TEMP1         RES 1 ;IN USE 
Warning[207]: Found label after column 1. (W_TEMP)
0005                  00030  W_TEMP       RES 1
Warning[207]: Found label after column 1. (STATUS_TEMP)
0006                  00031  STATUS_TEMP  RES 1
                      00032          
                      00033 ;******************************************************************************
                      00034 ;******************************************************************************
MPASM 5.77                         LAB_6.ASM   10-1-2020  15:34:46         PAGE  2


LOC  OBJECT CODE     LINE SOURCE TEXT
  VALUE

Warning[207]: Found label after column 1. (RES_VECT)
                      00035          RES_VECT  CODE    0x0000            ; processor reset vector
0000   2???           00036  GOTO    START                   ; go to beginning of program
                      00037 ;**************TODO ADD INTERRUPTS HERE IF USED********************************
                      00038 ISR_VEC CODE 0X004
Warning[207]: Found label after column 1. (PUSH)
0004                  00039  PUSH:
0004   138B           00040     BCF   INTCON, GIE
0005   00??           00041     MOVWF W_TEMP
0006   0E03           00042     SWAPF STATUS, W
0007   00??           00043     MOVWF STATUS_TEMP
Warning[207]: Found label after column 1. (ISR)
0008                  00044  ISR:
0008   188C           00045     BTFSC PIR1, TMR2IF
0009   2???           00046     CALL FUE_TIMR2
000A   180C           00047     BTFSC PIR1, TMR1IF
000B   2???           00048     CALL FUE_TIMR1  
000C   1D0B           00049     BTFSS INTCON, T0IF 
000D   2???           00050     GOTO POP    
000E   2???           00051     CALL FUE_TIMR0
Warning[207]: Found label after column 1. (POP)
000F                  00052  POP:
000F   0E??           00053     SWAPF STATUS_TEMP, W
0010   0083           00054     MOVWF STATUS 
0011   0E??           00055     SWAPF W_TEMP, F
0012   0E??           00056     SWAPF W_TEMP, W
0013   178B           00057     BSF   INTCON, GIE 
Warning[203]: Found opcode in column 1. (RETFIE)
0014   0009           00058 RETFIE
                      00059 ;//////////////////////////////SUBRUTINAS DE TIMERS/////////////////////////////
0015                  00060 FUE_TIMR0
0015   1D0B           00061     BTFSS INTCON, T0IF 
0016   2???           00062     GOTO POP
0017   3006           00063     MOVLW .6
0018   0081           00064     MOVWF TMR0
0019   110B           00065     BCF INTCON, T0IF
001A   2???           00066     CALL DISPLAY_D2
001B   2???           00067     CALL DISPLAY_D1
                      00068     
                      00069     
001C   0008           00070     RETURN 
001D                  00071 FUE_TIMR1
001D   30CF           00072     MOVLW .207  ;PRESCALER HIGH 
001E   008F           00073     MOVWF TMR1H
001F   3026           00074     MOVLW .38  ;PRESCALER LOW
0020   008E           00075     MOVWF TMR1L
0021   100C           00076     BCF  PIR1, TMR1IF
                      00077     
0022   0008           00078     RETURN 
0023                  00079 FUE_TIMR2
0023   0191           00080     CLRF TMR2
0024   108C           00081     BCF PIR1, TMR2IF
Message[305]: Using default destination of 1 (file).
MPASM 5.77                         LAB_6.ASM   10-1-2020  15:34:46         PAGE  3


LOC  OBJECT CODE     LINE SOURCE TEXT
  VALUE

0025   0A??           00082     INCF CONT1
0026   0008           00083     RETURN 
                      00084  ;/////////////////////////////////////////////////////////////////////////////  
                      00085          
0027                  00086 SEV_SEG:
0027   0782           00087     ADDWF PCL, F
0028   3477           00088     RETLW B'01110111';0
0029   3414           00089     RETLW B'00010100';1
002A   34B3           00090     RETLW B'10110011';2
002B   34B6           00091     RETLW B'10110110';3
002C   34D4           00092     RETLW B'11010100';4
002D   34E6           00093     RETLW B'11100110';5
002E   34E7           00094     RETLW B'11100111';6
002F   3434           00095     RETLW B'00110100';7
0030   34F7           00096     RETLW B'11110111';8
0031   34F4           00097     RETLW B'11110100';9                                                                                 
                                                                         
0032   34F5           00098     RETLW B'11110101';A
0033   34C7           00099     RETLW B'11000111';b
0034   3463           00100     RETLW B'01100011';C
0035   3497           00101     RETLW B'10010111';d
0036   34E3           00102     RETLW B'11100011';E
0037   34E1           00103     RETLW B'11100001';F
Warning[207]: Found label after column 1. (MAIN_PROG)
                      00104     MAIN_PROG CODE       0X100   
0100                  00105 START
Warning[203]: Found opcode in column 1. (BCF)
Message[302]: Register in operand not in bank 0.  Ensure that bank bits are correct.
0100   1381           00106 BCF OPTION_REG , 7
Warning[203]: Found opcode in column 1. (CALL)
0101   2???           00107 CALL    CONFIG_IO
Warning[203]: Found opcode in column 1. (CALL)
0102   2???           00108 CALL    CONFIG_TIMER0
Warning[203]: Found opcode in column 1. (CALL)
0103   2???           00109 CALL    CONFIG_TIMER1
Warning[203]: Found opcode in column 1. (CALL)
0104   2???           00110 CALL    CONFIG_TIMER2
Warning[203]: Found opcode in column 1. (CALL)
0105   2???           00111 CALL    CONFIG_FLAG
Warning[203]: Found opcode in column 1. (CALL)
0106   2???           00112 CALL    CONFUG_OSC
Warning[203]: Found opcode in column 1. (CALL)
0107   2???           00113 CALL    CONFUG_ADC
                      00114  
Warning[205]: Found directive in column 1. (BANKSEL)
0108   1283 1303      00115 BANKSEL PORTA 
Warning[203]: Found opcode in column 1. (CLRF)
010A   01??           00116 CLRF    CONT
Warning[203]: Found opcode in column 1. (CLRF)
010B   01??           00117 CLRF    CONT1
Warning[203]: Found opcode in column 1. (CLRF)
010C   01??           00118 CLRF    CONT2
Warning[203]: Found opcode in column 1. (CLRF)
MPASM 5.77                         LAB_6.ASM   10-1-2020  15:34:46         PAGE  4


LOC  OBJECT CODE     LINE SOURCE TEXT
  VALUE

010D   01??           00119 CLRF    TEMP
Warning[203]: Found opcode in column 1. (CLRF)
010E   01??           00120 CLRF    TEMP1
010F   01??           00121  CLRF W_TEMP       
0110   01??           00122  CLRF STATUS_TEMP  
Warning[203]: Found opcode in column 1. (GOTO)
0111   2???           00123 GOTO    LOOP
0112                  00124 LOOP:
0112   2???           00125     CALL DELAY
0113   149F           00126     BSF ADCON0,GO
0114   189F           00127     BTFSC ADCON0,GO
0115   2???           00128     GOTO$-1
0116   081E           00129     MOVF ADRESH, W
0117   00??           00130     MOVWF CONT
0118   0086           00131     MOVWF PORTB
0119   01??           00132     CLRF CONT1
                      00133     
Warning[203]: Found opcode in column 1. (GOTO)
011A   2???           00134 GOTO LOOP
                      00135  
011B                  00136 CONFUG_OSC:
011B   1683 1303      00137     BANKSEL OSCCON
011D   3061           00138     MOVLW B'01100001'
Message[302]: Register in operand not in bank 0.  Ensure that bank bits are correct.
011E   008F           00139     MOVWF OSCCON
011F   0008           00140     RETURN
0120                  00141 CONFUG_ADC:
0120                  00142 CONFIG_ADC
0120   1283 1303      00143     BANKSEL PORTA
0122   139F           00144     BCF ADCON0, ADCS1
0123   171F           00145     BSF ADCON0, ADCS0           ; FOSC/8 RELOJ TAD
0124   129F           00146     BCF ADCON0, CHS3            ; CANAL 0 PARA LA CONVERSION
0125   121F           00147     BCF ADCON0, CHS2
0126   119F           00148     BCF ADCON0, CHS1
0127   111F           00149     BCF ADCON0, CHS0    
0128   1683 1303      00150     BANKSEL TRISA
Message[302]: Register in operand not in bank 0.  Ensure that bank bits are correct.
012A   139F           00151     BCF ADCON1, ADFM            ; JUSTIFICACIÓN A LA IZQUIERDA
Message[302]: Register in operand not in bank 0.  Ensure that bank bits are correct.
012B   129F           00152     BCF ADCON1, VCFG1           ; VSS COMO REFERENCIA VREF-
Message[302]: Register in operand not in bank 0.  Ensure that bank bits are correct.
012C   121F           00153     BCF ADCON1, VCFG0           ; VDD COMO REFERENCIA VREF+
012D   1283 1303      00154     BANKSEL PORTA
012F   141F           00155     BSF ADCON0, ADON            ; ENCIENDO EL MÓDULO ADC
0130   0008           00156     RETURN
                      00157 
                      00158     
                      00159     
0131                  00160 DISPLAY_D1
0131   1008           00161  BCF   PORTD, RD0
0132   0E??           00162  SWAPF  CONT, W
0133   00??           00163  MOVWF TEMP
0134   300F           00164  MOVLW 0X0F
MPASM 5.77                         LAB_6.ASM   10-1-2020  15:34:46         PAGE  5


LOC  OBJECT CODE     LINE SOURCE TEXT
  VALUE

0135   05??           00165  ANDWF TEMP, W
0136   2???           00166  CALL SEV_SEG
0137   0087           00167  MOVWF PORTC 
0138   1488           00168  BSF   PORTD, RD1
0139   0008           00169  RETURN 
Warning[207]: Found label after column 1. (DISPLAY_D2)
013A                  00170  DISPLAY_D2
013A   1088           00171  BCF   PORTD, RD1
013B   300F           00172  MOVLW 0X0F
013C   05??           00173  ANDWF CONT,W
013D   2???           00174  CALL  SEV_SEG
013E   0087           00175  MOVWF PORTC 
013F   1408           00176  BSF   PORTD, RD0
0140   0008           00177  RETURN 
                      00178  ;------------------------------------------------------------------------------
                      00179  ;------------------------------------------------------------------------------
                      00180  ;------------------------------------------------------------------------------
Warning[207]: Found label after column 1. (CONFIG_FLAG)
0141                  00181  CONFIG_FLAG
0141   178B           00182  BSF  INTCON, GIE
0142   168B           00183  BSF  INTCON, T0IE
0143   110B           00184  BCF  INTCON, T0IF 
0144   1683 1303      00185  BANKSEL TRISA 
Message[302]: Register in operand not in bank 0.  Ensure that bank bits are correct.
0146   140C           00186  BSF     PIE1, TMR1IE
Message[302]: Register in operand not in bank 0.  Ensure that bank bits are correct.
0147   148C           00187  BSF     PIE1, TMR2IE 
0148   1283 1303      00188  BANKSEL PORTA
014A   178B           00189  BSF     INTCON, GIE
014B   170B           00190  BSF     INTCON, PEIE
014C   100C           00191  BCF     PIR1, TMR1IF
014D   108C           00192  BCF     PIR1, TMR2IF 
014E   0008           00193  RETURN 
Warning[207]: Found label after column 1. (CONFIG_TIMER0)
014F                  00194   CONFIG_TIMER0
014F   1683 1303      00195  BANKSEL TRISA
Message[302]: Register in operand not in bank 0.  Ensure that bank bits are correct.
0151   1281           00196  BCF OPTION_REG , T0CS
Message[302]: Register in operand not in bank 0.  Ensure that bank bits are correct.
0152   1181           00197  BCF OPTION_REG , PSA
Message[302]: Register in operand not in bank 0.  Ensure that bank bits are correct.
0153   1101           00198  BCF OPTION_REG , PS2
Message[302]: Register in operand not in bank 0.  Ensure that bank bits are correct.
0154   1481           00199  BSF OPTION_REG , PS1
Message[302]: Register in operand not in bank 0.  Ensure that bank bits are correct.
0155   1001           00200  BCF OPTION_REG , PS0
0156   1283 1303      00201  BANKSEL PORTA
0158   3006           00202  MOVLW   .6
0159   0081           00203  MOVWF   TMR0
015A   110B           00204  BCF INTCON, T0IF
015B   0008           00205  RETURN
015C                  00206 CONFIG_TIMER1
015C   1283 1303      00207  BANKSEL   PORTA
MPASM 5.77                         LAB_6.ASM   10-1-2020  15:34:46         PAGE  6


LOC  OBJECT CODE     LINE SOURCE TEXT
  VALUE

015E   1310           00208  BCF T1CON, TMR1GE
015F   1690           00209  BSF T1CON, T1CKPS1 ;PRESCALER 
0160   1610           00210  BSF T1CON, T1CKPS0 ;PRESCALER 
0161   1190           00211  BCF T1CON, T1OSCEN ;TIMER INTERNO  
0162   1090           00212  BCF T1CON, TMR1CS 
0163   1410           00213  BSF T1CON, TMR1ON 
0164   30CF           00214  MOVLW .207  ;PRESCALER HIGH 
0165   008F           00215  MOVWF TMR1H
0166   3026           00216  MOVLW .38  ;PRESCALER LOW
0167   008E           00217  MOVWF TMR1L
0168   100C           00218  BCF PIR1, TMR1IF
Warning[203]: Found opcode in column 1. (RETURN)
0169   0008           00219 RETURN 
016A                  00220 CONFIG_TIMER2
016A   1283 1303      00221  BANKSEL PORTA
016C   3025           00222  MOVLW   B'00100101'
016D   0092           00223  MOVWF   T2CON
016E   1683 1303      00224  BANKSEL TRISA
0170   3001           00225  MOVLW   .1
Message[302]: Register in operand not in bank 0.  Ensure that bank bits are correct.
0171   0092           00226  MOVWF   PR2
0172   1283 1303      00227  BANKSEL PORTA
0174   0191           00228  CLRF    TMR2
0175   108C           00229  BCF     PIR1, TMR2IF
Warning[203]: Found opcode in column 1. (RETURN)
0176   0008           00230 RETURN 
                      00231  ;+++++++++++++++++++++++++++++++++++++++++++++++++++++++++++++++++++++++++++++
                      00232  ;+++++++++++++++++++++++++++++++++++++++++++++++++++++++++++++++++++++++++++++
                      00233  ;+++++++++++++++++++++++++++++++++++++++++++++++++++++++++++++++++++++++++++++
Warning[207]: Found label after column 1. (CONFIG_IO)
0177                  00234  CONFIG_IO
0177   1683 1303      00235     BANKSEL TRISA
0179   3001           00236     MOVLW   B'00000001'
Message[302]: Register in operand not in bank 0.  Ensure that bank bits are correct.
017A   0085           00237     MOVWF   TRISA
017B   1283 1303      00238     BANKSEL PORTA
017D   0185           00239     CLRF    PORTA
017E   1683 1703      00240     BANKSEL ANSEL
Message[302]: Register in operand not in bank 0.  Ensure that bank bits are correct.
0180   0188           00241     CLRF    ANSEL
Message[302]: Register in operand not in bank 0.  Ensure that bank bits are correct.
0181   0189           00242     CLRF    ANSELH 
Message[302]: Register in operand not in bank 0.  Ensure that bank bits are correct.
0182   1408           00243     BSF ANSEL, ANS0
0183   1683 1303      00244     BANKSEL TRISB
0185   3000           00245     MOVLW   B'00000000'
Message[302]: Register in operand not in bank 0.  Ensure that bank bits are correct.
0186   0086           00246     MOVWF   TRISB
0187   1283 1303      00247     BANKSEL PORTB
0189   0186           00248     CLRF    PORTB
018A   1683 1303      00249     BANKSEL TRISC
018C   3000           00250     MOVLW   B'00000000'
Message[302]: Register in operand not in bank 0.  Ensure that bank bits are correct.
MPASM 5.77                         LAB_6.ASM   10-1-2020  15:34:46         PAGE  7


LOC  OBJECT CODE     LINE SOURCE TEXT
  VALUE

018D   0087           00251     MOVWF   TRISC
018E   1283 1303      00252     BANKSEL PORTC
0190   0187           00253     CLRF    PORTC
0191   1683 1303      00254     BANKSEL TRISD
0193   3000           00255     MOVLW   B'00000000'
Message[302]: Register in operand not in bank 0.  Ensure that bank bits are correct.
0194   0088           00256     MOVWF   TRISD
0195   1283 1303      00257     BANKSEL PORTD
0197   0188           00258     CLRF    PORTD
0198   0008           00259      RETURN
                      00260      
                      00261      ;DELAY
0199   0000           00262      NOP
019A   0000           00263      NOP
019B   0000           00264      NOP
019C   0000           00265      NOP
019D   0000           00266      NOP
019E   0000           00267      NOP
019F   0000           00268      NOP
01A0   0000           00269      NOP
01A1   0000           00270      NOP
01A2   0000           00271      NOP
01A3   0008           00272     RETURN 
                      00273      
01A4                  00274 DELAY_SMALL
01A4   3014           00275     MOVLW .20
01A5   08??           00276     MOVFW CONT1
01A6   0B??           00277     DECFSZ CONT1, F
01A7   2???           00278                GOTO $-1 ;IR A PC - 1, REGRESAR A DECFSZ
01A8   0008           00279  RETURN
01A9                  00280 DELAYM
01A9   3014           00281     MOVLW .20
01AA   00??           00282     MOVWF CONT2
01AB                  00283 CONFIG1:    
01AB   2???           00284     CALL DELAY_SMALL
01AC   0B??           00285     DECFSZ CONT2, F
01AD   2???           00286     GOTO CONFIG1
01AE   0008           00287     RETURN
01AF                  00288 DELAY
Warning[203]: Found opcode in column 1. (MOVF)
01AF   08??           00289 MOVF CONT1,W
Warning[203]: Found opcode in column 1. (SUBLW)
01B0   3C01           00290 SUBLW .1
Warning[203]: Found opcode in column 1. (BTFSC)
01B1   1903           00291 BTFSC STATUS,Z
Warning[203]: Found opcode in column 1. (RETURN)
01B2   0008           00292 RETURN 
Warning[203]: Found opcode in column 1. (GOTO)
01B3   2???           00293 GOTO $-4
Warning[205]: Found directive in column 1. (END)
20D4 3FFF             00294 END
MPASM 5.77                         LAB_6.ASM   10-1-2020  15:34:46         PAGE  8


SYMBOL TABLE
  LABEL                             VALUE 

ABDEN                             00000000
ABDOVF                            00000007
ACKDT                             00000005
ACKEN                             00000004
ACKSTAT                           00000006
ADCON0                            0000001F
ADCON1                            0000009F
ADCS0                             00000006
ADCS1                             00000007
ADDEN                             00000003
ADFM                              00000007
ADIE                              00000006
ADIF                              00000006
ADON                              00000000
ADRESH                            0000001E
ADRESL                            0000009E
ANS0                              00000000
ANS1                              00000001
ANS10                             00000002
ANS11                             00000003
ANS12                             00000004
ANS13                             00000005
ANS2                              00000002
ANS3                              00000003
ANS4                              00000004
ANS5                              00000005
ANS6                              00000006
ANS7                              00000007
ANS8                              00000000
ANS9                              00000001
ANSEL                             00000188
ANSELH                            00000189
BAUDCTL                           00000187
BCLIE                             00000003
BCLIF                             00000003
BF                                00000000
BRG0                              00000000
BRG1                              00000001
BRG10                             00000002
BRG11                             00000003
BRG12                             00000004
BRG13                             00000005
BRG14                             00000006
BRG15                             00000007
BRG16                             00000003
BRG2                              00000002
BRG3                              00000003
BRG4                              00000004
BRG5                              00000005
BRG6                              00000006
BRG7                              00000007
BRG8                              00000000
BRG9                              00000001
MPASM 5.77                         LAB_6.ASM   10-1-2020  15:34:46         PAGE  9


SYMBOL TABLE
  LABEL                             VALUE 

BRGH                              00000002
C                                 00000000
C1CH0                             00000000
C1CH1                             00000001
C1IE                              00000005
C1IF                              00000005
C1OE                              00000005
C1ON                              00000007
C1OUT                             00000006
C1POL                             00000004
C1R                               00000002
C1RSEL                            00000005
C1SEN                             00000005
C2CH0                             00000000
C2CH1                             00000001
C2IE                              00000006
C2IF                              00000006
C2OE                              00000005
C2ON                              00000007
C2OUT                             00000006
C2POL                             00000004
C2R                               00000002
C2REN                             00000004
C2RSEL                            00000004
C2SYNC                            00000000
CCP1CON                           00000017
CCP1IE                            00000002
CCP1IF                            00000002
CCP1M0                            00000000
CCP1M1                            00000001
CCP1M2                            00000002
CCP1M3                            00000003
CCP1X                             00000005
CCP1Y                             00000004
CCP2CON                           0000001D
CCP2IE                            00000000
CCP2IF                            00000000
CCP2M0                            00000000
CCP2M1                            00000001
CCP2M2                            00000002
CCP2M3                            00000003
CCP2X                             00000005
CCP2Y                             00000004
CCPR1                             00000015
CCPR1H                            00000016
CCPR1L                            00000015
CCPR2                             0000001B
CCPR2H                            0000001C
CCPR2L                            0000001B
CHS0                              00000002
CHS1                              00000003
CHS2                              00000004
CHS3                              00000005
MPASM 5.77                         LAB_6.ASM   10-1-2020  15:34:46         PAGE 10


SYMBOL TABLE
  LABEL                             VALUE 

CKE                               00000006
CKP                               00000004
CM1CON0                           00000107
CM2CON0                           00000108
CM2CON1                           00000109
CONFIG1                           000001AB
CONFIG_ADC                        00000120
CONFIG_FLAG                       00000141
CONFIG_IO                         00000177
CONFIG_TIMER0                     0000014F
CONFIG_TIMER1                     0000015C
CONFIG_TIMER2                     0000016A
CONFUG_ADC                        00000120
CONFUG_OSC                        0000011B
CONT                              00000000
CONT1                             00000001
CONT2                             00000002
CREN                              00000004
CSRC                              00000007
D                                 00000005
DATA_ADDRESS                      00000005
DC                                00000001
DC1B0                             00000004
DC1B1                             00000005
DC2B0                             00000004
DC2B1                             00000005
DELAY                             000001AF
DELAYM                            000001A9
DELAY_SMALL                       000001A4
DISPLAY_D1                        00000131
DISPLAY_D2                        0000013A
D_A                               00000005
D_NOT_A                           00000005
ECCPAS                            0000009C
ECCPAS0                           00000004
ECCPAS1                           00000005
ECCPAS2                           00000006
ECCPASE                           00000007
EEADR                             0000010D
EEADRH                            0000010F
EECON1                            0000018C
EECON2                            0000018D
EEDAT                             0000010C
EEDATA                            0000010C
EEDATH                            0000010E
EEIE                              00000004
EEIF                              00000004
EEPGD                             00000007
F                                 00000001
FERR                              00000002
FSR                               00000004
FUE_TIMR0                         00000015
FUE_TIMR1                         0000001D
MPASM 5.77                         LAB_6.ASM   10-1-2020  15:34:46         PAGE 11


SYMBOL TABLE
  LABEL                             VALUE 

FUE_TIMR2                         00000023
FVREN                             00000000
GCEN                              00000007
GIE                               00000007
GO                                00000001
GO_DONE                           00000001
GO_NOT_DONE                       00000001
HTS                               00000002
I2C_DATA                          00000005
I2C_READ                          00000002
I2C_START                         00000003
I2C_STOP                          00000004
INDF                              00000000
INTCON                            0000000B
INTE                              00000004
INTEDG                            00000006
INTF                              00000001
IOCB                              00000096
IOCB0                             00000000
IOCB1                             00000001
IOCB2                             00000002
IOCB3                             00000003
IOCB4                             00000004
IOCB5                             00000005
IOCB6                             00000006
IOCB7                             00000007
IRCF0                             00000004
IRCF1                             00000005
IRCF2                             00000006
IRP                               00000007
ISR                               00000008
LOOP                              00000112
LTS                               00000001
MC1OUT                            00000007
MC2OUT                            00000006
MSK                               00000093
MSK0                              00000000
MSK1                              00000001
MSK2                              00000002
MSK3                              00000003
MSK4                              00000004
MSK5                              00000005
MSK6                              00000006
MSK7                              00000007
NOT_A                             00000005
NOT_ADDRESS                       00000005
NOT_BO                            00000000
NOT_BOR                           00000000
NOT_DONE                          00000001
NOT_PD                            00000003
NOT_POR                           00000001
NOT_RBPU                          00000007
NOT_RC8                           00000006
MPASM 5.77                         LAB_6.ASM   10-1-2020  15:34:46         PAGE 12


SYMBOL TABLE
  LABEL                             VALUE 

NOT_T1SYNC                        00000002
NOT_TO                            00000004
NOT_TX8                           00000006
NOT_W                             00000002
NOT_WRITE                         00000002
OERR                              00000001
OPTION_REG                        00000081
OSCCON                            0000008F
OSCTUNE                           00000090
OSFIE                             00000007
OSFIF                             00000007
OSTS                              00000003
P                                 00000004
P1M0                              00000006
P1M1                              00000007
PCL                               00000002
PCLATH                            0000000A
PCON                              0000008E
PDC0                              00000000
PDC1                              00000001
PDC2                              00000002
PDC3                              00000003
PDC4                              00000004
PDC5                              00000005
PDC6                              00000006
PEIE                              00000006
PEN                               00000002
PIE1                              0000008C
PIE2                              0000008D
PIR1                              0000000C
PIR2                              0000000D
POP                               0000000F
PORTA                             00000005
PORTB                             00000006
PORTC                             00000007
PORTD                             00000008
PORTE                             00000009
PR2                               00000092
PRSEN                             00000007
PS0                               00000000
PS1                               00000001
PS2                               00000002
PSA                               00000003
PSSAC0                            00000002
PSSAC1                            00000003
PSSBD0                            00000000
PSSBD1                            00000001
PSTRCON                           0000009D
PULSR                             00000002
PULSS                             00000003
PUSH                              00000004
PWM1CON                           0000009B
R                                 00000002
MPASM 5.77                         LAB_6.ASM   10-1-2020  15:34:46         PAGE 13


SYMBOL TABLE
  LABEL                             VALUE 

RA0                               00000000
RA1                               00000001
RA2                               00000002
RA3                               00000003
RA4                               00000004
RA5                               00000005
RA6                               00000006
RA7                               00000007
RB0                               00000000
RB1                               00000001
RB2                               00000002
RB3                               00000003
RB4                               00000004
RB5                               00000005
RB6                               00000006
RB7                               00000007
RBIE                              00000003
RBIF                              00000000
RC0                               00000000
RC1                               00000001
RC2                               00000002
RC3                               00000003
RC4                               00000004
RC5                               00000005
RC6                               00000006
RC7                               00000007
RC8_9                             00000006
RC9                               00000006
RCD8                              00000000
RCEN                              00000003
RCIDL                             00000006
RCIE                              00000005
RCIF                              00000005
RCREG                             0000001A
RCSTA                             00000018
RD                                00000000
RD0                               00000000
RD1                               00000001
RD2                               00000002
RD3                               00000003
RD4                               00000004
RD5                               00000005
RD6                               00000006
RD7                               00000007
RE0                               00000000
RE1                               00000001
RE2                               00000002
RE3                               00000003
READ_WRITE                        00000002
RP0                               00000005
RP1                               00000006
RSEN                              00000001
RX9                               00000006
MPASM 5.77                         LAB_6.ASM   10-1-2020  15:34:46         PAGE 14


SYMBOL TABLE
  LABEL                             VALUE 

RX9D                              00000000
R_NOT_W                           00000002
R_W                               00000002
S                                 00000003
SBOREN                            00000004
SCKP                              00000004
SCS                               00000000
SEN                               00000000
SENDB                             00000003
SEV_SEG                           00000027
SMP                               00000007
SPBRG                             00000099
SPBRGH                            0000009A
SPEN                              00000007
SR0                               00000006
SR1                               00000007
SRCON                             00000185
SREN                              00000005
SSPADD                            00000093
SSPBUF                            00000013
SSPCON                            00000014
SSPCON2                           00000091
SSPEN                             00000005
SSPIE                             00000003
SSPIF                             00000003
SSPM0                             00000000
SSPM1                             00000001
SSPM2                             00000002
SSPM3                             00000003
SSPMSK                            00000093
SSPOV                             00000006
SSPSTAT                           00000094
START                             00000100
STATUS                            00000003
STATUS_TEMP                       00000006
STRA                              00000000
STRB                              00000001
STRC                              00000002
STRD                              00000003
STRSYNC                           00000004
SWDTEN                            00000000
SYNC                              00000004
T0CS                              00000005
T0IE                              00000005
T0IF                              00000002
T0SE                              00000004
T1CKPS0                           00000004
T1CKPS1                           00000005
T1CON                             00000010
T1GINV                            00000007
T1GIV                             00000007
T1GSS                             00000001
T1INSYNC                          00000002
MPASM 5.77                         LAB_6.ASM   10-1-2020  15:34:46         PAGE 15


SYMBOL TABLE
  LABEL                             VALUE 

T1OSCEN                           00000003
T1SYNC                            00000002
T2CKPS0                           00000000
T2CKPS1                           00000001
T2CON                             00000012
TEMP                              00000003
TEMP1                             00000004
TMR0                              00000001
TMR0IE                            00000005
TMR0IF                            00000002
TMR1                              0000000E
TMR1CS                            00000001
TMR1GE                            00000006
TMR1H                             0000000F
TMR1IE                            00000000
TMR1IF                            00000000
TMR1L                             0000000E
TMR1ON                            00000000
TMR2                              00000011
TMR2IE                            00000001
TMR2IF                            00000001
TMR2ON                            00000002
TOUTPS0                           00000003
TOUTPS1                           00000004
TOUTPS2                           00000005
TOUTPS3                           00000006
TRISA                             00000085
TRISA0                            00000000
TRISA1                            00000001
TRISA2                            00000002
TRISA3                            00000003
TRISA4                            00000004
TRISA5                            00000005
TRISA6                            00000006
TRISA7                            00000007
TRISB                             00000086
TRISB0                            00000000
TRISB1                            00000001
TRISB2                            00000002
TRISB3                            00000003
TRISB4                            00000004
TRISB5                            00000005
TRISB6                            00000006
TRISB7                            00000007
TRISC                             00000087
TRISC0                            00000000
TRISC1                            00000001
TRISC2                            00000002
TRISC3                            00000003
TRISC4                            00000004
TRISC5                            00000005
TRISC6                            00000006
TRISC7                            00000007
MPASM 5.77                         LAB_6.ASM   10-1-2020  15:34:46         PAGE 16


SYMBOL TABLE
  LABEL                             VALUE 

TRISD                             00000088
TRISD0                            00000000
TRISD1                            00000001
TRISD2                            00000002
TRISD3                            00000003
TRISD4                            00000004
TRISD5                            00000005
TRISD6                            00000006
TRISD7                            00000007
TRISE                             00000089
TRISE0                            00000000
TRISE1                            00000001
TRISE2                            00000002
TRISE3                            00000003
TRMT                              00000001
TUN0                              00000000
TUN1                              00000001
TUN2                              00000002
TUN3                              00000003
TUN4                              00000004
TX8_9                             00000006
TX9                               00000006
TX9D                              00000000
TXD8                              00000000
TXEN                              00000005
TXIE                              00000004
TXIF                              00000004
TXREG                             00000019
TXSTA                             00000098
UA                                00000001
ULPWUE                            00000005
ULPWUIE                           00000002
ULPWUIF                           00000002
VCFG0                             00000004
VCFG1                             00000005
VR0                               00000000
VR1                               00000001
VR2                               00000002
VR3                               00000003
VRCON                             00000097
VREN                              00000007
VROE                              00000006
VRR                               00000005
VRSS                              00000004
W                                 00000000
WCOL                              00000007
WDTCON                            00000105
WDTPS0                            00000001
WDTPS1                            00000002
WDTPS2                            00000003
WDTPS3                            00000004
WPUB                              00000095
WPUB0                             00000000
MPASM 5.77                         LAB_6.ASM   10-1-2020  15:34:46         PAGE 17


SYMBOL TABLE
  LABEL                             VALUE 

WPUB1                             00000001
WPUB2                             00000002
WPUB3                             00000003
WPUB4                             00000004
WPUB5                             00000005
WPUB6                             00000006
WPUB7                             00000007
WR                                00000001
WREN                              00000002
WRERR                             00000003
WUE                               00000001
W_TEMP                            00000005
Z                                 00000002
_BOR21V                           00003EFF
_BOR40V                           00003FFF
_BOR4V_BOR21V                     00003EFF
_BOR4V_BOR40V                     00003FFF
_BOREN_NSLEEP                     00003EFF
_BOREN_OFF                        00003CFF
_BOREN_ON                         00003FFF
_BOREN_SBODEN                     00003DFF
_BOR_NSLEEP                       00003EFF
_BOR_OFF                          00003CFF
_BOR_ON                           00003FFF
_BOR_SBODEN                       00003DFF
_CONFIG1                          00002007
_CONFIG2                          00002008
_CPD_OFF                          00003FFF
_CPD_ON                           00003F7F
_CP_OFF                           00003FFF
_CP_ON                            00003FBF
_DEBUG_OFF                        00003FFF
_DEBUG_ON                         00001FFF
_DEVID1                           00002006
_EC_OSC                           00003FFB
_EXTRC                            00003FFF
_EXTRCIO                          00003FFE
_EXTRC_OSC_CLKOUT                 00003FFF
_EXTRC_OSC_NOCLKOUT               00003FFE
_FCMEN_OFF                        000037FF
_FCMEN_ON                         00003FFF
_FOSC_EC                          00003FFB
_FOSC_EXTRC_CLKOUT                00003FFF
_FOSC_EXTRC_NOCLKOUT              00003FFE
_FOSC_HS                          00003FFA
_FOSC_INTRC_CLKOUT                00003FFD
_FOSC_INTRC_NOCLKOUT              00003FFC
_FOSC_LP                          00003FF8
_FOSC_XT                          00003FF9
_HS_OSC                           00003FFA
_IDLOC0                           00002000
_IDLOC1                           00002001
_IDLOC2                           00002002
MPASM 5.77                         LAB_6.ASM   10-1-2020  15:34:46         PAGE 18


SYMBOL TABLE
  LABEL                             VALUE 

_IDLOC3                           00002003
_IESO_OFF                         00003BFF
_IESO_ON                          00003FFF
_INTOSC                           00003FFD
_INTOSCIO                         00003FFC
_INTRC_OSC_CLKOUT                 00003FFD
_INTRC_OSC_NOCLKOUT               00003FFC
_LP_OSC                           00003FF8
_LVP_OFF                          00002FFF
_LVP_ON                           00003FFF
_MAIN_PROG_0115                   00000115
_MAIN_PROG_01A7                   000001A7
_MAIN_PROG_01B3                   000001B3
_MCLRE_OFF                        00003FDF
_MCLRE_ON                         00003FFF
_PWRTE_OFF                        00003FFF
_PWRTE_ON                         00003FEF
_WDTE_OFF                         00003FF7
_WDTE_ON                          00003FFF
_WDT_OFF                          00003FF7
_WDT_ON                           00003FFF
_WRT_1FOURTH                      00003BFF
_WRT_256                          00003DFF
_WRT_HALF                         000039FF
_WRT_OFF                          00003FFF
_XT_OSC                           00003FF9
__16F887                          00000001

Errors   :     0
Warnings :    42 reported,     0 suppressed
Messages :    21 reported,     0 suppressed

